target datalayout = "e-m:e-p270:32:32-p271:32:32-p272:64:64-i64:64-i128:128-f80:128-n8:16:32:64-S128"
target triple = "x86_64-pc-linux-gnu"

%struct.ggml_opt_context = type { ptr, ptr, ptr, ptr, ptr, ptr, ptr, ptr, ptr, %"class.std::mersenne_twister_engine", ptr, ptr, ptr, ptr, ptr, ptr, ptr, ptr, ptr, i64, i32, i32, i8, ptr, ptr, ptr }
%"class.std::mersenne_twister_engine" = type { [624 x i64], i64 }

; Function Attrs: mustprogress uwtable
define void @ggml_opt_reset(ptr noundef %0, i1 noundef zeroext %1) #0 {
  %3 = alloca ptr, align 8
  %4 = alloca i8, align 1
  store ptr %0, ptr %3, align 8, !tbaa !40
  %5 = zext i1 %1 to i8
  store i8 %5, ptr %4, align 1, !tbaa !28
  %6 = load i8, ptr %4, align 1, !tbaa !28, !range !111, !noundef !112
  %7 = trunc i8 %6 to i1
  br i1 %7, label %8, label %14

8:                                                ; preds = %2
  %9 = load ptr, ptr %3, align 8, !tbaa !40
  %10 = getelementptr inbounds nuw %struct.ggml_opt_context, ptr %9, i32 0, i32 18
  %11 = load ptr, ptr %10, align 8, !tbaa !123
  call void @ggml_graph_reset(ptr noundef %11)
  %12 = load ptr, ptr %3, align 8, !tbaa !40
  %13 = getelementptr inbounds nuw %struct.ggml_opt_context, ptr %12, i32 0, i32 19
  store i64 1, ptr %13, align 8, !tbaa !130
  br label %18

14:                                               ; preds = %2
  %15 = load ptr, ptr %3, align 8, !tbaa !40
  %16 = getelementptr inbounds nuw %struct.ggml_opt_context, ptr %15, i32 0, i32 17
  %17 = load ptr, ptr %16, align 8, !tbaa !122
  call void @ggml_graph_reset(ptr noundef %17)
  br label %18

18:                                               ; preds = %14, %8
  ret void
}