; Function Attrs: mustprogress uwtable
define void @ggml_opt_reset(ptr noundef captures(none) %0, i1 noundef zeroext %1) local_unnamed_addr #0 {
  br i1 %1, label %3, label %7

3:                                                ; preds = %2
  %4 = getelementptr inbounds nuw i8, ptr %0, i64 5136
  %5 = load ptr, ptr %4, align 8, !tbaa !101
  tail call void @ggml_graph_reset(ptr noundef %5)
  %6 = getelementptr inbounds nuw i8, ptr %0, i64 5144
  store i64 1, ptr %6, align 8, !tbaa !69
  br label %10

7:                                                ; preds = %2
  %8 = getelementptr inbounds nuw i8, ptr %0, i64 5128
  %9 = load ptr, ptr %8, align 8, !tbaa !100
  tail call void @ggml_graph_reset(ptr noundef %9)
  br label %10

10:                                               ; preds = %7, %3
  ret void
}